target datalayout = "e-m:e-p270:32:32-p271:32:32-p272:64:64-i64:64-i128:128-f80:128-n8:16:32:64-S128"
target triple = "x86_64-pc-linux-gnu"

%struct._wmem_map_t = type { i32, i64, ptr, ptr, ptr, i32, i32, ptr, ptr }
%struct._wmem_map_item_t = type { ptr, ptr, ptr }

@x = internal global i32 0, align 4

; Function Attrs: null_pointer_is_valid sspstrong uwtable
define zeroext i1 @wmem_map_steal(ptr noundef %0, ptr noundef %1) #0 {
  %3 = alloca i1, align 1
  %4 = alloca ptr, align 8
  %5 = alloca ptr, align 8
  %6 = alloca ptr, align 8
  %7 = alloca ptr, align 8
  %8 = alloca i32, align 4
  store ptr %0, ptr %4, align 8
  store ptr %1, ptr %5, align 8
  call void @llvm.lifetime.start.p0(i64 8, ptr %6) #8
  call void @llvm.lifetime.start.p0(i64 8, ptr %7) #8
  %9 = load ptr, ptr %4, align 8
  %10 = icmp eq ptr %9, null
  br i1 %10, label %16, label %11

11:                                               ; preds = %2
  %12 = load ptr, ptr %4, align 8
  %13 = getelementptr inbounds nuw %struct._wmem_map_t, ptr %12, i32 0, i32 2
  %14 = load ptr, ptr %13, align 8
  %15 = icmp eq ptr %14, null
  br i1 %15, label %16, label %17

16:                                               ; preds = %11, %2
  store i1 false, ptr %3, align 1
  store i32 1, ptr %8, align 4
  br label %67

17:                                               ; preds = %11
  %18 = load ptr, ptr %4, align 8
  %19 = getelementptr inbounds nuw %struct._wmem_map_t, ptr %18, i32 0, i32 2
  %20 = load ptr, ptr %19, align 8
  %21 = load ptr, ptr %4, align 8
  %22 = getelementptr inbounds nuw %struct._wmem_map_t, ptr %21, i32 0, i32 3
  %23 = load ptr, ptr %22, align 8
  %24 = load ptr, ptr %5, align 8
  %25 = call i32 %23(ptr noundef %24)
  %26 = load i32, ptr @x, align 4
  %27 = mul i32 %25, %26
  %28 = load ptr, ptr %4, align 8
  %29 = getelementptr inbounds nuw %struct._wmem_map_t, ptr %28, i32 0, i32 1
  %30 = load i64, ptr %29, align 8
  %31 = sub i64 32, %30
  %32 = trunc i64 %31 to i32
  %33 = lshr i32 %27, %32
  %34 = zext i32 %33 to i64
  %35 = getelementptr ptr, ptr %20, i64 %34
  store ptr %35, ptr %6, align 8
  br label %36

36:                                               ; preds = %62, %17
  %37 = load ptr, ptr %6, align 8
  %38 = load ptr, ptr %37, align 8
  %39 = icmp ne ptr %38, null
  br i1 %39, label %40, label %66

40:                                               ; preds = %36
  %41 = load ptr, ptr %4, align 8
  %42 = getelementptr inbounds nuw %struct._wmem_map_t, ptr %41, i32 0, i32 4
  %43 = load ptr, ptr %42, align 8
  %44 = load ptr, ptr %5, align 8
  %45 = load ptr, ptr %6, align 8
  %46 = load ptr, ptr %45, align 8
  %47 = getelementptr inbounds nuw %struct._wmem_map_item_t, ptr %46, i32 0, i32 0
  %48 = load ptr, ptr %47, align 8
  %49 = call i32 %43(ptr noundef %44, ptr noundef %48)
  %50 = icmp ne i32 %49, 0
  br i1 %50, label %51, label %62

51:                                               ; preds = %40
  %52 = load ptr, ptr %6, align 8
  %53 = load ptr, ptr %52, align 8
  store ptr %53, ptr %7, align 8
  %54 = load ptr, ptr %7, align 8
  %55 = getelementptr inbounds nuw %struct._wmem_map_item_t, ptr %54, i32 0, i32 2
  %56 = load ptr, ptr %55, align 8
  %57 = load ptr, ptr %6, align 8
  store ptr %56, ptr %57, align 8
  %58 = load ptr, ptr %4, align 8
  %59 = getelementptr inbounds nuw %struct._wmem_map_t, ptr %58, i32 0, i32 0
  %60 = load i32, ptr %59, align 8
  %61 = add i32 %60, -1
  store i32 %61, ptr %59, align 8
  store i1 true, ptr %3, align 1
  store i32 1, ptr %8, align 4
  br label %67

62:                                               ; preds = %40
  %63 = load ptr, ptr %6, align 8
  %64 = load ptr, ptr %63, align 8
  %65 = getelementptr inbounds nuw %struct._wmem_map_item_t, ptr %64, i32 0, i32 2
  store ptr %65, ptr %6, align 8
  br label %36, !llvm.loop !14

66:                                               ; preds = %36
  store i1 false, ptr %3, align 1
  store i32 1, ptr %8, align 4
  br label %67

67:                                               ; preds = %66, %51, %16
  call void @llvm.lifetime.end.p0(i64 8, ptr %7) #8
  call void @llvm.lifetime.end.p0(i64 8, ptr %6) #8
  %68 = load i1, ptr %3, align 1
  ret i1 %68
}