; Function Attrs: null_pointer_is_valid sspstrong uwtable
define noundef zeroext i1 @wmem_map_steal(ptr noundef captures(address_is_null) %0, ptr noundef %1) local_unnamed_addr #0 {
  %3 = icmp eq ptr %0, null
  br i1 %3, label %.loopexit, label %4

4:                                                ; preds = %2
  %5 = getelementptr inbounds nuw i8, ptr %0, i64 16
  %6 = load ptr, ptr %5, align 8
  %7 = icmp eq ptr %6, null
  br i1 %7, label %.loopexit, label %8

8:                                                ; preds = %4
  %9 = getelementptr inbounds nuw i8, ptr %0, i64 24
  %10 = load ptr, ptr %9, align 8
  %11 = tail call i32 %10(ptr noundef %1)
  %12 = load i32, ptr @x, align 4
  %13 = mul i32 %12, %11
  %14 = getelementptr inbounds nuw i8, ptr %0, i64 8
  %15 = load i64, ptr %14, align 8
  %16 = trunc i64 %15 to i32
  %17 = sub i32 32, %16
  %18 = lshr i32 %13, %17
  %19 = zext i32 %18 to i64
  %20 = getelementptr ptr, ptr %6, i64 %19
  %21 = load ptr, ptr %20, align 8
  %.not22 = icmp eq ptr %21, null
  br i1 %.not22, label %.loopexit, label %.lr.ph

.lr.ph:                                           ; preds = %8
  %22 = getelementptr inbounds nuw i8, ptr %0, i64 32
  br label %23

23:                                               ; preds = %.lr.ph, %34
  %24 = phi ptr [ %21, %.lr.ph ], [ %30, %34 ]
  %.01623 = phi ptr [ %20, %.lr.ph ], [ %29, %34 ]
  %25 = load ptr, ptr %22, align 8
  %26 = load ptr, ptr %24, align 8
  %27 = tail call i32 %25(ptr noundef %1, ptr noundef %26)
  %.not20 = icmp eq i32 %27, 0
  %28 = load ptr, ptr %.01623, align 8
  %29 = getelementptr inbounds nuw i8, ptr %28, i64 16
  %30 = load ptr, ptr %29, align 8
  br i1 %.not20, label %34, label %31

31:                                               ; preds = %23
  store ptr %30, ptr %.01623, align 8
  %32 = load i32, ptr %0, align 8
  %33 = add i32 %32, -1
  store i32 %33, ptr %0, align 8
  br label %.loopexit

34:                                               ; preds = %23
  %.not = icmp eq ptr %30, null
  br i1 %.not, label %.loopexit, label %23, !llvm.loop !15

.loopexit:                                        ; preds = %34, %8, %2, %4, %31
  %.0 = phi i1 [ true, %31 ], [ false, %4 ], [ false, %2 ], [ false, %8 ], [ false, %34 ]
  ret i1 %.0
}